target datalayout = "e-m:e-p270:32:32-p271:32:32-p272:64:64-i64:64-i128:128-f80:128-n8:16:32:64-S128"
target triple = "x86_64-pc-linux-gnu"

%struct.b2World = type { %struct.b2ArenaAllocator, %struct.b2BroadPhase, %struct.b2ConstraintGraph, %struct.b2IdPool, %struct.b2BodyArray, %struct.b2IdPool, %struct.b2SolverSetArray, %struct.b2IdPool, %struct.b2JointArray, %struct.b2IdPool, %struct.b2ContactArray, %struct.b2IdPool, %struct.b2IslandArray, %struct.b2IdPool, %struct.b2IdPool, %struct.b2ShapeArray, %struct.b2ChainShapeArray, %struct.b2SensorArray, %struct.b2TaskContextArray, %struct.b2SensorTaskContextArray, %struct.b2BodyMoveEventArray, %struct.b2SensorBeginTouchEventArray, %struct.b2ContactBeginTouchEventArray, [2 x %struct.b2SensorEndTouchEventArray], [2 x %struct.b2ContactEndTouchEventArray], i32, %struct.b2ContactHitEventArray, %struct.b2BitSet, %struct.b2BitSet, %struct.b2BitSet, i64, i32, %struct.b2Vec2, float, float, float, float, float, float, float, float, ptr, ptr, i16, %struct.b2Profile, ptr, ptr, ptr, ptr, i32, ptr, ptr, ptr, ptr, ptr, float, i32, i32, i16, i8, i8, i8, i8, i8, i8 }
%struct.b2ArenaAllocator = type { ptr, i32, i32, i32, i32, %struct.b2ArenaEntryArray }
%struct.b2ArenaEntryArray = type { ptr, i32, i32 }
%struct.b2BroadPhase = type { [3 x %struct.b2DynamicTree], i32, %struct.b2HashSet, %struct.b2IntArray, ptr, ptr, i32, %struct.b2AtomicInt, %struct.b2HashSet }
%struct.b2DynamicTree = type { ptr, i32, i32, i32, i32, i32, ptr, ptr, ptr, ptr, i32 }
%struct.b2IntArray = type { ptr, i32, i32 }
%struct.b2AtomicInt = type { i32 }
%struct.b2HashSet = type { ptr, i32, i32 }
%struct.b2ConstraintGraph = type { [12 x %struct.b2GraphColor] }
%struct.b2GraphColor = type { %struct.b2BitSet, %struct.b2ContactSimArray, %struct.b2JointSimArray, %union.anon }
%struct.b2ContactSimArray = type { ptr, i32, i32 }
%struct.b2JointSimArray = type { ptr, i32, i32 }
%union.anon = type { ptr }
%struct.b2BodyArray = type { ptr, i32, i32 }
%struct.b2SolverSetArray = type { ptr, i32, i32 }
%struct.b2JointArray = type { ptr, i32, i32 }
%struct.b2ContactArray = type { ptr, i32, i32 }
%struct.b2IslandArray = type { ptr, i32, i32 }
%struct.b2IdPool = type { %struct.b2IntArray, i32 }
%struct.b2ShapeArray = type { ptr, i32, i32 }
%struct.b2ChainShapeArray = type { ptr, i32, i32 }
%struct.b2SensorArray = type { ptr, i32, i32 }
%struct.b2TaskContextArray = type { ptr, i32, i32 }
%struct.b2SensorTaskContextArray = type { ptr, i32, i32 }
%struct.b2BodyMoveEventArray = type { ptr, i32, i32 }
%struct.b2SensorBeginTouchEventArray = type { ptr, i32, i32 }
%struct.b2ContactBeginTouchEventArray = type { ptr, i32, i32 }
%struct.b2SensorEndTouchEventArray = type { ptr, i32, i32 }
%struct.b2ContactEndTouchEventArray = type { ptr, i32, i32 }
%struct.b2ContactHitEventArray = type { ptr, i32, i32 }
%struct.b2BitSet = type { ptr, i32, i32 }
%struct.b2Vec2 = type { float, float }
%struct.b2Profile = type { float, float, float, float, float, float, float, float, float, float, float, float, float, float, float, float, float, float, float, float, float, float }
%struct.b2WorldId = type { i16, i16 }
%struct.b2SensorEvents = type { ptr, ptr, i32, i32 }

@b2_worlds = hidden global [128 x %struct.b2World] zeroinitializer, align 16

; Function Attrs: nounwind uwtable
define hidden ptr @b2GetWorldFromId(i32 %0) #0 {
  %2 = alloca %struct.b2WorldId, align 2
  %3 = alloca ptr, align 8
  store i32 %0, ptr %2, align 2
  call void @llvm.lifetime.start.p0(i64 8, ptr %3) #10
  %4 = getelementptr inbounds nuw %struct.b2WorldId, ptr %2, i32 0, i32 0
  %5 = load i16, ptr %4, align 2, !tbaa !44
  %6 = zext i16 %5 to i32
  %7 = sub nsw i32 %6, 1
  %8 = sext i32 %7 to i64
  %9 = getelementptr inbounds %struct.b2World, ptr @b2_worlds, i64 %8
  store ptr %9, ptr %3, align 8, !tbaa !47
  %10 = load ptr, ptr %3, align 8, !tbaa !47
  call void @llvm.lifetime.end.p0(i64 8, ptr %3) #10
  ret ptr %10
}

; Function Attrs: nounwind uwtable
define void @b2World_GetSensorEvents(ptr dead_on_unwind noalias writable sret(%struct.b2SensorEvents) align 8 %0, i32 %1) #0 {
  %3 = alloca %struct.b2WorldId, align 2
  %4 = alloca ptr, align 8
  %5 = alloca i32, align 4
  %6 = alloca i32, align 4
  %7 = alloca i32, align 4
  %8 = alloca i32, align 4
  store i32 %1, ptr %3, align 2
  call void @llvm.lifetime.start.p0(i64 8, ptr %4) #10
  %9 = load i32, ptr %3, align 2
  %10 = call ptr @b2GetWorldFromId(i32 %9)
  store ptr %10, ptr %4, align 8, !tbaa !47
  %11 = load ptr, ptr %4, align 8, !tbaa !47
  %12 = getelementptr inbounds nuw %struct.b2World, ptr %11, i32 0, i32 60
  %13 = load i8, ptr %12, align 1, !tbaa !49, !range !90, !noundef !91
  %14 = trunc i8 %13 to i1
  br i1 %14, label %15, label %16

15:                                               ; preds = %2
  call void @llvm.memset.p0.i64(ptr align 8 %0, i8 0, i64 24, i1 false)
  store i32 1, ptr %5, align 4
  br label %49

16:                                               ; preds = %2
  call void @llvm.lifetime.start.p0(i64 4, ptr %6) #10
  %17 = load ptr, ptr %4, align 8, !tbaa !47
  %18 = getelementptr inbounds nuw %struct.b2World, ptr %17, i32 0, i32 25
  %19 = load i32, ptr %18, align 8, !tbaa !157
  %20 = sub nsw i32 1, %19
  store i32 %20, ptr %6, align 4, !tbaa !3
  call void @llvm.lifetime.start.p0(i64 4, ptr %7) #10
  %21 = load ptr, ptr %4, align 8, !tbaa !47
  %22 = getelementptr inbounds nuw %struct.b2World, ptr %21, i32 0, i32 21
  %23 = getelementptr inbounds nuw %struct.b2SensorBeginTouchEventArray, ptr %22, i32 0, i32 1
  %24 = load i32, ptr %23, align 8, !tbaa !423
  store i32 %24, ptr %7, align 4, !tbaa !3
  call void @llvm.lifetime.start.p0(i64 4, ptr %8) #10
  %25 = load ptr, ptr %4, align 8, !tbaa !47
  %26 = getelementptr inbounds nuw %struct.b2World, ptr %25, i32 0, i32 23
  %27 = load i32, ptr %6, align 4, !tbaa !3
  %28 = sext i32 %27 to i64
  %29 = getelementptr inbounds [2 x %struct.b2SensorEndTouchEventArray], ptr %26, i64 0, i64 %28
  %30 = getelementptr inbounds nuw %struct.b2SensorEndTouchEventArray, ptr %29, i32 0, i32 1
  %31 = load i32, ptr %30, align 8, !tbaa !38
  store i32 %31, ptr %8, align 4, !tbaa !3
  %32 = getelementptr inbounds nuw %struct.b2SensorEvents, ptr %0, i32 0, i32 0
  %33 = load ptr, ptr %4, align 8, !tbaa !47
  %34 = getelementptr inbounds nuw %struct.b2World, ptr %33, i32 0, i32 21
  %35 = getelementptr inbounds nuw %struct.b2SensorBeginTouchEventArray, ptr %34, i32 0, i32 0
  %36 = load ptr, ptr %35, align 8, !tbaa !424
  store ptr %36, ptr %32, align 8, !tbaa !425
  %37 = getelementptr inbounds nuw %struct.b2SensorEvents, ptr %0, i32 0, i32 1
  %38 = load ptr, ptr %4, align 8, !tbaa !47
  %39 = getelementptr inbounds nuw %struct.b2World, ptr %38, i32 0, i32 23
  %40 = load i32, ptr %6, align 4, !tbaa !3
  %41 = sext i32 %40 to i64
  %42 = getelementptr inbounds [2 x %struct.b2SensorEndTouchEventArray], ptr %39, i64 0, i64 %41
  %43 = getelementptr inbounds nuw %struct.b2SensorEndTouchEventArray, ptr %42, i32 0, i32 0
  %44 = load ptr, ptr %43, align 8, !tbaa !34
  store ptr %44, ptr %37, align 8, !tbaa !427
  %45 = getelementptr inbounds nuw %struct.b2SensorEvents, ptr %0, i32 0, i32 2
  %46 = load i32, ptr %7, align 4, !tbaa !3
  store i32 %46, ptr %45, align 8, !tbaa !428
  %47 = getelementptr inbounds nuw %struct.b2SensorEvents, ptr %0, i32 0, i32 3
  %48 = load i32, ptr %8, align 4, !tbaa !3
  store i32 %48, ptr %47, align 4, !tbaa !429
  store i32 1, ptr %5, align 4
  call void @llvm.lifetime.end.p0(i64 4, ptr %8) #10
  call void @llvm.lifetime.end.p0(i64 4, ptr %7) #10
  call void @llvm.lifetime.end.p0(i64 4, ptr %6) #10
  br label %49

49:                                               ; preds = %16, %15
  call void @llvm.lifetime.end.p0(i64 8, ptr %4) #10
  ret void
}