; Function Attrs: mustprogress nofree norecurse nosync nounwind willreturn memory(read, argmem: write, inaccessiblemem: none) uwtable
define void @b2World_GetSensorEvents(ptr dead_on_unwind noalias writable writeonly sret(%struct.b2SensorEvents) align 8 captures(none) initializes((0, 24)) %0, i32 %1) local_unnamed_addr #10 {
  %3 = and i32 %1, 65535
  %4 = zext nneg i32 %3 to i64
  %5 = getelementptr %struct.b2World, ptr @b2_worlds, i64 %4
  %6 = getelementptr i8, ptr %5, i64 -9
  %7 = load i8, ptr %6, align 1, !tbaa !35, !range !77, !noundef !78
  %8 = trunc nuw i8 %7 to i1
  br i1 %8, label %9, label %10

9:                                                ; preds = %2
  tail call void @llvm.memset.p0.i64(ptr noundef nonnull align 8 dereferenceable(24) %0, i8 0, i64 24, i1 false)
  br label %27

10:                                               ; preds = %2
  %11 = getelementptr i8, ptr %5, i64 -344
  %12 = load i32, ptr %11, align 8, !tbaa !107
  %13 = sub nsw i32 1, %12
  %14 = getelementptr i8, ptr %5, i64 -440
  %15 = getelementptr i8, ptr %5, i64 -432
  %16 = load i32, ptr %15, align 16, !tbaa !353
  %17 = getelementptr i8, ptr %5, i64 -408
  %18 = sext i32 %13 to i64
  %19 = getelementptr inbounds [2 x %struct.b2SensorEndTouchEventArray], ptr %17, i64 0, i64 %18
  %20 = getelementptr inbounds nuw i8, ptr %19, i64 8
  %21 = load i32, ptr %20, align 16, !tbaa !187
  %22 = load ptr, ptr %14, align 8, !tbaa !354
  store ptr %22, ptr %0, align 8, !tbaa !355
  %23 = getelementptr inbounds nuw i8, ptr %0, i64 8
  %24 = load ptr, ptr %19, align 8, !tbaa !30
  store ptr %24, ptr %23, align 8, !tbaa !357
  %25 = getelementptr inbounds nuw i8, ptr %0, i64 16
  store i32 %16, ptr %25, align 8, !tbaa !358
  %26 = getelementptr inbounds nuw i8, ptr %0, i64 20
  store i32 %21, ptr %26, align 4, !tbaa !359
  br label %27

27:                                               ; preds = %10, %9
  ret void
}